target datalayout = "e-m:e-p270:32:32-p271:32:32-p272:64:64-i64:64-i128:128-f80:128-n8:16:32:64-S128"
target triple = "x86_64-pc-linux-gnu"

%struct._zend_compiler_globals = type { %struct._zend_stack, ptr, ptr, i32, ptr, ptr, ptr, ptr, i8, i8, i8, i8, i8, %struct._zend_llist, ptr, i8, i8, i8, i8, ptr, i32, i32, %struct._zend_oparray_context, %struct._zend_file_context, ptr, %struct._zend_array, ptr, i64, i8, i8, i8, ptr, ptr, %struct._zend_stack, ptr, i32, ptr, ptr, i64, i64, ptr, ptr, ptr, ptr, i32, %struct._zend_stack }
%struct._zend_llist = type { ptr, ptr, i64, i64, ptr, i8, ptr }
%struct._zend_oparray_context = type { i32, i32, i32, i32, i32, i32, i32, ptr, ptr, i8 }
%struct._zend_file_context = type { %struct._zend_declarables, ptr, i8, i8, ptr, ptr, ptr, %struct._zend_array }
%struct._zend_declarables = type { i64 }
%struct._zend_array = type { %struct._zend_refcounted_h, %union.anon.0, i32, %union.anon.1, i32, i32, i32, i32, i64, ptr }
%struct._zend_refcounted_h = type { i32, %union.anon }
%union.anon = type { i32 }
%union.anon.0 = type { i32 }
%union.anon.1 = type { ptr }
%struct._zend_stack = type { i32, i32, i32, ptr }
%struct._zval_struct = type { %union._zend_value, %union.anon.3, %union.anon.6 }
%union._zend_value = type { i64 }
%union.anon.3 = type { i32 }
%union.anon.6 = type { i32 }
%struct._zend_string = type { %struct._zend_refcounted_h, i64, i64, [1 x i8] }
%struct.anon.4 = type { i8, i8, %union.anon.5 }
%union.anon.5 = type { i16 }
%struct._zend_ast_zval = type { i16, i16, %struct._zval_struct }
%struct._zend_ast = type { i16, i16, i32, [1 x ptr] }
%struct._zend_auto_global = type { ptr, ptr, i8, i8 }
%struct._znode = type { i8, i8, %union.anon.14 }
%union.anon.14 = type { %struct._zval_struct }

@compiler_globals = global %struct._zend_compiler_globals zeroinitializer, align 8
@zend_new_interned_string = external global ptr, align 8

; Function Attrs: nounwind uwtable
define zeroext i1 @zend_is_auto_global(ptr noundef %0) #0 {
  %2 = alloca ptr, align 8
  %3 = alloca ptr, align 8
  %4 = alloca ptr, align 8
  %5 = alloca ptr, align 8
  %6 = alloca i1, align 1
  %7 = alloca ptr, align 8
  %8 = alloca ptr, align 8
  store ptr %0, ptr %7, align 8
  %9 = load ptr, ptr getelementptr inbounds (%struct._zend_compiler_globals, ptr @compiler_globals, i32 0, i32 7), align 8
  %10 = load ptr, ptr %7, align 8
  store ptr %9, ptr %3, align 8
  store ptr %10, ptr %4, align 8
  %11 = load ptr, ptr %3, align 8
  %12 = load ptr, ptr %4, align 8
  %13 = call ptr @zend_hash_find(ptr noundef %11, ptr noundef %12) #15
  store ptr %13, ptr %5, align 8
  %14 = load ptr, ptr %5, align 8
  %15 = icmp ne ptr %14, null
  br i1 %15, label %16, label %22

16:                                               ; preds = %1
  %17 = load ptr, ptr %5, align 8
  %18 = load ptr, ptr %17, align 8
  %19 = icmp ne ptr %18, null
  call void @llvm.assume(i1 %19)
  %20 = load ptr, ptr %5, align 8
  %21 = load ptr, ptr %20, align 8
  store ptr %21, ptr %2, align 8
  br label %23

22:                                               ; preds = %1
  store ptr null, ptr %2, align 8
  br label %23

23:                                               ; preds = %22, %16
  %24 = load ptr, ptr %2, align 8
  store ptr %24, ptr %8, align 8
  %25 = icmp ne ptr %24, null
  br i1 %25, label %26, label %43

26:                                               ; preds = %23
  %27 = load ptr, ptr %8, align 8
  %28 = getelementptr inbounds %struct._zend_auto_global, ptr %27, i32 0, i32 3
  %29 = load i8, ptr %28, align 1
  %30 = trunc i8 %29 to i1
  br i1 %30, label %31, label %42

31:                                               ; preds = %26
  %32 = load ptr, ptr %8, align 8
  %33 = getelementptr inbounds %struct._zend_auto_global, ptr %32, i32 0, i32 1
  %34 = load ptr, ptr %33, align 8
  %35 = load ptr, ptr %8, align 8
  %36 = getelementptr inbounds %struct._zend_auto_global, ptr %35, i32 0, i32 0
  %37 = load ptr, ptr %36, align 8
  %38 = call zeroext i1 %34(ptr noundef %37)
  %39 = load ptr, ptr %8, align 8
  %40 = getelementptr inbounds %struct._zend_auto_global, ptr %39, i32 0, i32 3
  %41 = zext i1 %38 to i8
  store i8 %41, ptr %40, align 1
  br label %42

42:                                               ; preds = %31, %26
  store i1 true, ptr %6, align 1
  br label %44

43:                                               ; preds = %23
  store i1 false, ptr %6, align 1
  br label %44

44:                                               ; preds = %43, %42
  %45 = load i1, ptr %6, align 1
  ret i1 %45
}

; Function Attrs: nounwind uwtable
define hidden ptr @zval_make_interned_string(ptr noundef %0) #0 {
  %2 = alloca i32, align 4
  %3 = alloca ptr, align 8
  store ptr %0, ptr %3, align 8
  %4 = load ptr, ptr @zend_new_interned_string, align 8
  %5 = load ptr, ptr %3, align 8
  %6 = getelementptr inbounds %struct._zval_struct, ptr %5, i32 0, i32 0
  %7 = load ptr, ptr %6, align 8
  %8 = call ptr %4(ptr noundef %7)
  %9 = load ptr, ptr %3, align 8
  %10 = getelementptr inbounds %struct._zval_struct, ptr %9, i32 0, i32 0
  store ptr %8, ptr %10, align 8
  %11 = load ptr, ptr %3, align 8
  %12 = getelementptr inbounds %struct._zval_struct, ptr %11, i32 0, i32 0
  %13 = load ptr, ptr %12, align 8
  %14 = getelementptr inbounds %struct._zend_string, ptr %13, i32 0, i32 0
  %15 = getelementptr inbounds %struct._zend_refcounted_h, ptr %14, i32 0, i32 1
  %16 = load i32, ptr %15, align 4
  store i32 %16, ptr %2, align 4
  %17 = load i32, ptr %2, align 4
  %18 = and i32 %17, 1008
  %19 = and i32 %18, 64
  %20 = icmp ne i32 %19, 0
  br i1 %20, label %21, label %25

21:                                               ; preds = %1
  %22 = load ptr, ptr %3, align 8
  %23 = getelementptr inbounds %struct._zval_struct, ptr %22, i32 0, i32 1
  %24 = getelementptr inbounds %struct.anon.4, ptr %23, i32 0, i32 1
  store i8 0, ptr %24, align 1
  br label %25

25:                                               ; preds = %21, %1
  %26 = load ptr, ptr %3, align 8
  %27 = getelementptr inbounds %struct._zval_struct, ptr %26, i32 0, i32 0
  %28 = load ptr, ptr %27, align 8
  ret ptr %28
}

; Function Attrs: nounwind uwtable
define internal i32 @zend_try_compile_cv(ptr noundef %0, ptr noundef %1) #0 {
  %3 = alloca ptr, align 8
  %4 = alloca i32, align 4
  %5 = alloca ptr, align 8
  %6 = alloca i8, align 1
  %7 = alloca ptr, align 8
  %8 = alloca ptr, align 8
  %9 = alloca ptr, align 8
  %10 = alloca i32, align 4
  %11 = alloca ptr, align 8
  %12 = alloca ptr, align 8
  %13 = alloca ptr, align 8
  %14 = alloca ptr, align 8
  %15 = alloca ptr, align 8
  store ptr %0, ptr %11, align 8
  store ptr %1, ptr %12, align 8
  %16 = load ptr, ptr %12, align 8
  %17 = getelementptr inbounds %struct._zend_ast, ptr %16, i32 0, i32 3
  %18 = getelementptr inbounds [1 x ptr], ptr %17, i64 0, i64 0
  %19 = load ptr, ptr %18, align 8
  store ptr %19, ptr %13, align 8
  %20 = load ptr, ptr %13, align 8
  %21 = getelementptr inbounds %struct._zend_ast, ptr %20, i32 0, i32 0
  %22 = load i16, ptr %21, align 8
  %23 = zext i16 %22 to i32
  %24 = icmp eq i32 %23, 64
  br i1 %24, label %25, label %103

25:                                               ; preds = %2
  %26 = load ptr, ptr %13, align 8
  store ptr %26, ptr %9, align 8
  %27 = load ptr, ptr %9, align 8
  %28 = load i16, ptr %27, align 8
  %29 = zext i16 %28 to i32
  %30 = icmp eq i32 %29, 64
  call void @llvm.assume(i1 %30)
  %31 = load ptr, ptr %9, align 8
  %32 = getelementptr inbounds %struct._zend_ast_zval, ptr %31, i32 0, i32 2
  store ptr %32, ptr %14, align 8
  %33 = load ptr, ptr %14, align 8
  store ptr %33, ptr %7, align 8
  %34 = load ptr, ptr %7, align 8
  %35 = getelementptr inbounds %struct._zval_struct, ptr %34, i32 0, i32 1
  %36 = load i8, ptr %35, align 8
  %37 = zext i8 %36 to i32
  %38 = icmp eq i32 %37, 6
  %39 = xor i1 %38, true
  %40 = xor i1 %39, true
  %41 = zext i1 %40 to i32
  %42 = sext i32 %41 to i64
  %43 = icmp ne i64 %42, 0
  br i1 %43, label %44, label %47

44:                                               ; preds = %25
  %45 = load ptr, ptr %14, align 8
  %46 = call ptr @zval_make_interned_string(ptr noundef %45)
  store ptr %46, ptr %15, align 8
  br label %52

47:                                               ; preds = %25
  %48 = load ptr, ptr @zend_new_interned_string, align 8
  %49 = load ptr, ptr %14, align 8
  %50 = call ptr @zval_get_string_func(ptr noundef %49)
  %51 = call ptr %48(ptr noundef %50)
  store ptr %51, ptr %15, align 8
  br label %52

52:                                               ; preds = %47, %44
  %53 = load ptr, ptr %15, align 8
  %54 = call zeroext i1 @zend_is_auto_global(ptr noundef %53)
  br i1 %54, label %55, label %56

55:                                               ; preds = %52
  store i32 -1, ptr %10, align 4
  br label %104

56:                                               ; preds = %52
  %57 = load ptr, ptr %11, align 8
  %58 = getelementptr inbounds %struct._znode, ptr %57, i32 0, i32 0
  store i8 8, ptr %58, align 8
  %59 = load ptr, ptr %15, align 8
  %60 = call i32 @lookup_cv(ptr noundef %59)
  %61 = load ptr, ptr %11, align 8
  %62 = getelementptr inbounds %struct._znode, ptr %61, i32 0, i32 2
  store i32 %60, ptr %62, align 8
  %63 = load ptr, ptr %14, align 8
  store ptr %63, ptr %8, align 8
  %64 = load ptr, ptr %8, align 8
  %65 = getelementptr inbounds %struct._zval_struct, ptr %64, i32 0, i32 1
  %66 = load i8, ptr %65, align 8
  %67 = zext i8 %66 to i32
  %68 = icmp ne i32 %67, 6
  %69 = xor i1 %68, true
  %70 = xor i1 %69, true
  %71 = zext i1 %70 to i32
  %72 = sext i32 %71 to i64
  %73 = icmp ne i64 %72, 0
  br i1 %73, label %74, label %102

74:                                               ; preds = %56
  %75 = load ptr, ptr %15, align 8
  store ptr %75, ptr %5, align 8
  store i8 0, ptr %6, align 1
  %76 = load ptr, ptr %5, align 8
  %77 = getelementptr inbounds %struct._zend_refcounted_h, ptr %76, i32 0, i32 1
  %78 = load i32, ptr %77, align 4
  store i32 %78, ptr %4, align 4
  %79 = load i32, ptr %4, align 4
  %80 = and i32 %79, 1008
  %81 = and i32 %80, 64
  %82 = icmp ne i32 %81, 0
  br i1 %82, label %101, label %83

83:                                               ; preds = %74
  %84 = load ptr, ptr %5, align 8
  store ptr %84, ptr %3, align 8
  %85 = load ptr, ptr %3, align 8
  %86 = load i32, ptr %85, align 4
  %87 = icmp ugt i32 %86, 0
  call void @llvm.assume(i1 %87)
  %88 = load ptr, ptr %3, align 8
  %89 = load i32, ptr %88, align 4
  %90 = add i32 %89, -1
  store i32 %90, ptr %88, align 4
  %91 = icmp eq i32 %90, 0
  br i1 %91, label %92, label %100

92:                                               ; preds = %83
  %93 = load i8, ptr %6, align 1
  %94 = trunc i8 %93 to i1
  br i1 %94, label %95, label %97

95:                                               ; preds = %92
  %96 = load ptr, ptr %5, align 8
  call void @free(ptr noundef %96) #15
  br label %99

97:                                               ; preds = %92
  %98 = load ptr, ptr %5, align 8
  call void @_efree(ptr noundef %98) #15
  br label %99

99:                                               ; preds = %97, %95
  br label %100

100:                                              ; preds = %99, %83
  br label %101

101:                                              ; preds = %100, %74
  br label %102

102:                                              ; preds = %101, %56
  store i32 0, ptr %10, align 4
  br label %104

103:                                              ; preds = %2
  store i32 -1, ptr %10, align 4
  br label %104

104:                                              ; preds = %103, %102, %55
  %105 = load i32, ptr %10, align 4
  ret i32 %105
}