; Function Attrs: nounwind uwtable
define internal fastcc noundef i32 @zend_try_compile_cv(ptr nocapture noundef writeonly %0, ptr %.8.val) unnamed_addr #0 {
  %2 = load i16, ptr %.8.val, align 8
  %3 = icmp eq i16 %2, 64
  br i1 %3, label %4, label %zend_is_auto_global.exit.thread

4:                                                ; preds = %1
  %5 = getelementptr inbounds i8, ptr %.8.val, i64 8
  %6 = getelementptr inbounds i8, ptr %.8.val, i64 16
  %7 = load i8, ptr %6, align 8
  %8 = icmp eq i8 %7, 6
  %9 = load ptr, ptr @zend_new_interned_string, align 8
  br i1 %8, label %10, label %18

10:                                               ; preds = %4
  %11 = load ptr, ptr %5, align 8
  %12 = tail call ptr %9(ptr noundef %11) #30
  store ptr %12, ptr %5, align 8
  %13 = getelementptr inbounds i8, ptr %12, i64 4
  %14 = load i32, ptr %13, align 4
  %15 = and i32 %14, 64
  %.not.i = icmp eq i32 %15, 0
  br i1 %.not.i, label %zval_make_interned_string.exit, label %16

16:                                               ; preds = %10
  %17 = getelementptr inbounds i8, ptr %.8.val, i64 17
  store i8 0, ptr %17, align 1
  br label %zval_make_interned_string.exit

18:                                               ; preds = %4
  %19 = tail call ptr @zval_get_string_func(ptr noundef nonnull %5) #30
  %20 = tail call ptr %9(ptr noundef %19) #30
  br label %zval_make_interned_string.exit

zval_make_interned_string.exit:                   ; preds = %16, %10, %18
  %.0 = phi ptr [ %20, %18 ], [ %12, %10 ], [ %12, %16 ]
  %21 = load ptr, ptr getelementptr inbounds (%struct._zend_compiler_globals, ptr @compiler_globals, i64 0, i32 7), align 8
  %22 = tail call ptr @zend_hash_find(ptr noundef %21, ptr noundef %.0) #30
  %.not.i26.not = icmp eq ptr %22, null
  br i1 %.not.i26.not, label %zend_is_auto_global.exit, label %23

23:                                               ; preds = %zval_make_interned_string.exit
  %24 = load ptr, ptr %22, align 8, !nonnull !5, !noundef !5
  %25 = getelementptr inbounds i8, ptr %24, i64 17
  %26 = load i8, ptr %25, align 1
  %27 = and i8 %26, 1
  %.not15.i = icmp eq i8 %27, 0
  br i1 %.not15.i, label %zend_is_auto_global.exit.thread, label %28

28:                                               ; preds = %23
  %29 = getelementptr inbounds i8, ptr %24, i64 8
  %30 = load ptr, ptr %29, align 8
  %31 = load ptr, ptr %24, align 8
  %32 = tail call zeroext i1 %30(ptr noundef %31) #30
  %33 = zext i1 %32 to i8
  store i8 %33, ptr %25, align 1
  br label %zend_is_auto_global.exit.thread

zend_is_auto_global.exit:                         ; preds = %zval_make_interned_string.exit
  store i8 8, ptr %0, align 8
  %34 = tail call fastcc i32 @lookup_cv(ptr noundef %.0)
  %35 = getelementptr inbounds i8, ptr %0, i64 8
  store i32 %34, ptr %35, align 8
  %36 = load i8, ptr %6, align 8
  %.not = icmp eq i8 %36, 6
  br i1 %.not, label %zend_is_auto_global.exit.thread, label %37

37:                                               ; preds = %zend_is_auto_global.exit
  %38 = getelementptr inbounds i8, ptr %.0, i64 4
  %39 = load i32, ptr %38, align 4
  %40 = and i32 %39, 64
  %.not25 = icmp eq i32 %40, 0
  br i1 %.not25, label %41, label %zend_is_auto_global.exit.thread

41:                                               ; preds = %37
  %42 = load i32, ptr %.0, align 4
  %43 = icmp ne i32 %42, 0
  tail call void @llvm.assume(i1 %43)
  %44 = add i32 %42, -1
  store i32 %44, ptr %.0, align 4
  %45 = icmp eq i32 %44, 0
  br i1 %45, label %46, label %zend_is_auto_global.exit.thread

46:                                               ; preds = %41
  tail call void @_efree(ptr noundef nonnull %.0) #30
  br label %zend_is_auto_global.exit.thread

zend_is_auto_global.exit.thread:                  ; preds = %28, %23, %1, %zend_is_auto_global.exit, %41, %46, %37
  %.024 = phi i32 [ 0, %37 ], [ 0, %46 ], [ 0, %41 ], [ 0, %zend_is_auto_global.exit ], [ -1, %1 ], [ -1, %23 ], [ -1, %28 ]
  ret i32 %.024
}